target datalayout = "e-m:e-p270:32:32-p271:32:32-p272:64:64-i64:64-i128:128-f80:128-n8:16:32:64-S128"
target triple = "x86_64-pc-linux-gnu"

@hf_ecmp_diagnostic = internal global i32 0, align 4
@hf_ecmp_names_scheme = internal global i32 0, align 4
@hf_ecmp_physical_address = internal global i32 0, align 4
@hf_ecmp_logical_address = internal global i32 0, align 4
@ett_ecmp_address = internal global i32 0, align 4

; Function Attrs: null_pointer_is_valid sspstrong uwtable
define internal i32 @add_transport_layer_frame(i32 noundef %0, ptr noundef %1, ptr noundef %2, i32 noundef %3) #0 {
  %5 = alloca i32, align 4
  %6 = alloca ptr, align 8
  %7 = alloca ptr, align 8
  %8 = alloca i32, align 4
  %9 = alloca ptr, align 8
  %10 = alloca ptr, align 8
  %11 = alloca i8, align 1
  store i32 %0, ptr %5, align 4
  store ptr %1, ptr %6, align 8
  store ptr %2, ptr %7, align 8
  store i32 %3, ptr %8, align 4
  call void @llvm.lifetime.start.p0(i64 8, ptr %9) #3
  store ptr null, ptr %9, align 8
  call void @llvm.lifetime.start.p0(i64 8, ptr %10) #3
  store ptr null, ptr %10, align 8
  call void @llvm.lifetime.start.p0(i64 1, ptr %11) #3
  %12 = load ptr, ptr %7, align 8
  %13 = load i32, ptr %8, align 4
  %14 = load ptr, ptr %6, align 8
  %15 = load i32, ptr %5, align 4
  %16 = call ptr @proto_tree_add_item(ptr noundef %12, i32 noundef %13, ptr noundef %14, i32 noundef %15, i32 noundef 1, i32 noundef 0)
  store ptr %16, ptr %9, align 8
  %17 = load ptr, ptr %6, align 8
  %18 = load i32, ptr %5, align 4
  %19 = call zeroext i8 @tvb_get_uint8(ptr noundef %17, i32 noundef %18)
  store i8 %19, ptr %11, align 1
  %20 = load i8, ptr %11, align 1
  %21 = zext i8 %20 to i32
  %22 = icmp ne i32 %21, 0
  br i1 %22, label %23, label %68

23:                                               ; preds = %4
  %24 = load i8, ptr %11, align 1
  %25 = zext i8 %24 to i32
  %26 = icmp ne i32 %25, 1
  br i1 %26, label %27, label %68

27:                                               ; preds = %23
  %28 = load ptr, ptr %9, align 8
  %29 = load i32, ptr @ett_ecmp_address, align 4
  %30 = call ptr @proto_item_add_subtree(ptr noundef %28, i32 noundef %29)
  store ptr %30, ptr %10, align 8
  %31 = load i8, ptr %11, align 1
  %32 = zext i8 %31 to i32
  switch i32 %32, label %67 [
    i32 2, label %33
    i32 3, label %46
    i32 4, label %54
  ]

33:                                               ; preds = %27
  %34 = load i32, ptr %5, align 4
  %35 = add i32 %34, 1
  store i32 %35, ptr %5, align 4
  %36 = load ptr, ptr %10, align 8
  %37 = load i32, ptr @hf_ecmp_physical_address, align 4
  %38 = load ptr, ptr %6, align 8
  %39 = load i32, ptr %5, align 4
  %40 = call ptr @proto_tree_add_item(ptr noundef %36, i32 noundef %37, ptr noundef %38, i32 noundef %39, i32 noundef 1, i32 noundef 0)
  %41 = load ptr, ptr %10, align 8
  %42 = load i32, ptr @hf_ecmp_logical_address, align 4
  %43 = load ptr, ptr %6, align 8
  %44 = load i32, ptr %5, align 4
  %45 = call ptr @proto_tree_add_item(ptr noundef %41, i32 noundef %42, ptr noundef %43, i32 noundef %44, i32 noundef 1, i32 noundef 0)
  br label %67

46:                                               ; preds = %27
  %47 = load ptr, ptr %10, align 8
  %48 = load i32, ptr @hf_ecmp_diagnostic, align 4
  %49 = load ptr, ptr %6, align 8
  %50 = load i32, ptr %5, align 4
  %51 = call ptr @proto_tree_add_item(ptr noundef %47, i32 noundef %48, ptr noundef %49, i32 noundef %50, i32 noundef 1, i32 noundef 0)
  %52 = load i32, ptr %5, align 4
  %53 = add i32 %52, 1
  store i32 %53, ptr %5, align 4
  br label %67

54:                                               ; preds = %27
  %55 = load ptr, ptr %10, align 8
  %56 = load i32, ptr @hf_ecmp_names_scheme, align 4
  %57 = load ptr, ptr %6, align 8
  %58 = load i32, ptr %5, align 4
  %59 = call ptr @proto_tree_add_item(ptr noundef %55, i32 noundef %56, ptr noundef %57, i32 noundef %58, i32 noundef 2, i32 noundef 0)
  %60 = load ptr, ptr %6, align 8
  %61 = load i32, ptr %5, align 4
  %62 = call zeroext i16 @tvb_get_ntohs(ptr noundef %60, i32 noundef %61)
  %63 = zext i16 %62 to i32
  %64 = add i32 %63, 2
  %65 = load i32, ptr %5, align 4
  %66 = add i32 %65, %64
  store i32 %66, ptr %5, align 4
  br label %67

67:                                               ; preds = %27, %54, %46, %33
  br label %68

68:                                               ; preds = %67, %23, %4
  %69 = load i32, ptr %5, align 4
  %70 = add i32 %69, 1
  store i32 %70, ptr %5, align 4
  %71 = load i32, ptr %5, align 4
  call void @llvm.lifetime.end.p0(i64 1, ptr %11) #3
  call void @llvm.lifetime.end.p0(i64 8, ptr %10) #3
  call void @llvm.lifetime.end.p0(i64 8, ptr %9) #3
  ret i32 %71
}