; Function Attrs: null_pointer_is_valid sspstrong uwtable
define internal fastcc i32 @add_transport_layer_frame(i32 noundef %0, ptr noundef %1, ptr noundef %2, i32 noundef %3) unnamed_addr #0 {
  %5 = tail call ptr @proto_tree_add_item(ptr noundef %2, i32 noundef %3, ptr noundef %1, i32 noundef %0, i32 noundef 1, i32 noundef 0)
  %6 = tail call zeroext i8 @tvb_get_uint8(ptr noundef %1, i32 noundef %0)
  %or.cond = icmp ugt i8 %6, 1
  br i1 %or.cond, label %7, label %27

7:                                                ; preds = %4
  %8 = load i32, ptr @ett_ecmp_address, align 4
  %9 = tail call ptr @proto_item_add_subtree(ptr noundef %5, i32 noundef %8)
  switch i8 %6, label %27 [
    i8 2, label %10
    i8 3, label %16
    i8 4, label %20
  ]

10:                                               ; preds = %7
  %11 = add i32 %0, 1
  %12 = load i32, ptr @hf_ecmp_physical_address, align 4
  %13 = tail call ptr @proto_tree_add_item(ptr noundef %9, i32 noundef %12, ptr noundef %1, i32 noundef %11, i32 noundef 1, i32 noundef 0)
  %14 = load i32, ptr @hf_ecmp_logical_address, align 4
  %15 = tail call ptr @proto_tree_add_item(ptr noundef %9, i32 noundef %14, ptr noundef %1, i32 noundef %11, i32 noundef 1, i32 noundef 0)
  br label %27

16:                                               ; preds = %7
  %17 = load i32, ptr @hf_ecmp_diagnostic, align 4
  %18 = tail call ptr @proto_tree_add_item(ptr noundef %9, i32 noundef %17, ptr noundef %1, i32 noundef %0, i32 noundef 1, i32 noundef 0)
  %19 = add i32 %0, 1
  br label %27

20:                                               ; preds = %7
  %21 = load i32, ptr @hf_ecmp_names_scheme, align 4
  %22 = tail call ptr @proto_tree_add_item(ptr noundef %9, i32 noundef %21, ptr noundef %1, i32 noundef %0, i32 noundef 2, i32 noundef 0)
  %23 = tail call zeroext i16 @tvb_get_ntohs(ptr noundef %1, i32 noundef %0)
  %24 = zext i16 %23 to i32
  %25 = add i32 %0, 2
  %26 = add i32 %25, %24
  br label %27

27:                                               ; preds = %7, %10, %16, %20, %4
  %.0 = phi i32 [ %0, %7 ], [ %26, %20 ], [ %19, %16 ], [ %11, %10 ], [ %0, %4 ]
  %28 = add i32 %.0, 1
  ret i32 %28
}